; Function Attrs: mustprogress uwtable
define internal fastcc noundef zeroext i1 @_ZL6equalsN7dropbox6oxygen2nnISt10shared_ptrIN5osgeo4proj8metadata6ExtentEEEES8_(ptr noundef nonnull %0, ptr noundef nonnull %1) unnamed_addr #4 {
  %3 = load ptr, ptr %0, align 8, !tbaa !77
  %4 = tail call noundef zeroext i1 @_ZNK5osgeo4proj8metadata6Extent8containsERKN7dropbox6oxygen2nnISt10shared_ptrIS2_EEE(ptr noundef nonnull align 8 dereferenceable(32) %3, ptr noundef nonnull align 8 dereferenceable(16) %1)
  br i1 %4, label %5, label %8

5:                                                ; preds = %2
  %6 = load ptr, ptr %1, align 8, !tbaa !77
  %7 = tail call noundef zeroext i1 @_ZNK5osgeo4proj8metadata6Extent8containsERKN7dropbox6oxygen2nnISt10shared_ptrIS2_EEE(ptr noundef nonnull align 8 dereferenceable(32) %6, ptr noundef nonnull align 8 dereferenceable(16) %0)
  br label %8

8:                                                ; preds = %5, %2
  %9 = phi i1 [ false, %2 ], [ %7, %5 ]
  ret i1 %9
}